(dp1
S'v_total_0_face'
p2
(dp3
I0
cnumpy.core.multiarray
_reconstruct
p4
(cnumpy
ndarray
p5
(I0
tS'b'
tRp6
(I1
(I0
tcnumpy
dtype
p7
(S'f8'
I0
I1
tRp8
(I3
S'<'
NNNI-1
I-1
I0
tbI00
S''
tbssS'v_total_1_house'
p9
(dp10
I0
g4
(g5
(I0
tS'b'
tRp11
(I1
(I0
tg8
I00
S''
tbssS't_subj.9'
p12
(dp13
I0
g4
(g5
(I0
tS'b'
tRp14
(I1
(I0
tg8
I00
S''
tbssS't_subj.8'
p15
(dp16
I0
g4
(g5
(I0
tS'b'
tRp17
(I1
(I0
tg8
I00
S''
tbssS't_subj.5'
p18
(dp19
I0
g4
(g5
(I0
tS'b'
tRp20
(I1
(I0
tg8
I00
S''
tbssS'v_Intercept_std'
p21
(dp22
I0
g4
(g5
(I0
tS'b'
tRp23
(I1
(I0
tg8
I00
S''
tbssS't_subj.7'
p24
(dp25
I0
g4
(g5
(I0
tS'b'
tRp26
(I1
(I0
tg8
I00
S''
tbssS't_subj.6'
p27
(dp28
I0
g4
(g5
(I0
tS'b'
tRp29
(I1
(I0
tg8
I00
S''
tbssS't_subj.1'
p30
(dp31
I0
g4
(g5
(I0
tS'b'
tRp32
(I1
(I0
tg8
I00
S''
tbssS't_subj.3'
p33
(dp34
I0
g4
(g5
(I0
tS'b'
tRp35
(I1
(I0
tg8
I00
S''
tbssS't_subj.2'
p36
(dp37
I0
g4
(g5
(I0
tS'b'
tRp38
(I1
(I0
tg8
I00
S''
tbssS'v_reg.11'
p39
(dp40
I0
g4
(g5
(I0
tS'b'
tRp41
(I1
(I0
I300
I1
tg8
I00
S''
tbssS't_subj.20'
p42
(dp43
I0
g4
(g5
(I0
tS'b'
tRp44
(I1
(I0
tg8
I00
S''
tbssS't_subj.21'
p45
(dp46
I0
g4
(g5
(I0
tS'b'
tRp47
(I1
(I0
tg8
I00
S''
tbssS't_subj.22'
p48
(dp49
I0
g4
(g5
(I0
tS'b'
tRp50
(I1
(I0
tg8
I00
S''
tbssS't_subj.23'
p51
(dp52
I0
g4
(g5
(I0
tS'b'
tRp53
(I1
(I0
tg8
I00
S''
tbssS'v_reg.13'
p54
(dp55
I0
g4
(g5
(I0
tS'b'
tRp56
(I1
(I0
I300
I1
tg8
I00
S''
tbssS'z_subj_trans.8'
p57
(dp58
I0
g4
(g5
(I0
tS'b'
tRp59
(I1
(I0
tg8
I00
S''
tbssS'v_Intercept_subj.12'
p60
(dp61
I0
g4
(g5
(I0
tS'b'
tRp62
(I1
(I0
tg8
I00
S''
tbssS'z_subj.23'
p63
(dp64
I0
g4
(g5
(I0
tS'b'
tRp65
(I1
(I0
tg8
I00
S''
tbssS'v_Intercept_subj.10'
p66
(dp67
I0
g4
(g5
(I0
tS'b'
tRp68
(I1
(I0
tg8
I00
S''
tbssS'z_subj.21'
p69
(dp70
I0
g4
(g5
(I0
tS'b'
tRp71
(I1
(I0
tg8
I00
S''
tbssS'v_Intercept_subj.16'
p72
(dp73
I0
g4
(g5
(I0
tS'b'
tRp74
(I1
(I0
tg8
I00
S''
tbssS'v_Intercept_subj.17'
p75
(dp76
I0
g4
(g5
(I0
tS'b'
tRp77
(I1
(I0
tg8
I00
S''
tbssS'v_Intercept_subj.14'
p78
(dp79
I0
g4
(g5
(I0
tS'b'
tRp80
(I1
(I0
tg8
I00
S''
tbssS'v_Intercept_subj.15'
p81
(dp82
I0
g4
(g5
(I0
tS'b'
tRp83
(I1
(I0
tg8
I00
S''
tbssS'v_Intercept_subj.18'
p84
(dp85
I0
g4
(g5
(I0
tS'b'
tRp86
(I1
(I0
tg8
I00
S''
tbssS'v_Intercept_subj.19'
p87
(dp88
I0
g4
(g5
(I0
tS'b'
tRp89
(I1
(I0
tg8
I00
S''
tbssS'deviance'
p90
(dp91
I0
g4
(g5
(I0
tS'b'
tRp92
(I1
(I0
tg8
I00
S''
tbssS'v_reg.15'
p93
(dp94
I0
g4
(g5
(I0
tS'b'
tRp95
(I1
(I0
I284
I1
tg8
I00
S''
tbssS't_std'
p96
(dp97
I0
g4
(g5
(I0
tS'b'
tRp98
(I1
(I0
tg8
I00
S''
tbssS't'
(dp99
I0
g4
(g5
(I0
tS'b'
tRp100
(I1
(I0
tg8
I00
S''
tbssS'v_reg.19'
p101
(dp102
I0
g4
(g5
(I0
tS'b'
tRp103
(I1
(I0
I235
I1
tg8
I00
S''
tbssS'z_subj.17'
p104
(dp105
I0
g4
(g5
(I0
tS'b'
tRp106
(I1
(I0
tg8
I00
S''
tbssS'z_subj.16'
p107
(dp108
I0
g4
(g5
(I0
tS'b'
tRp109
(I1
(I0
tg8
I00
S''
tbssS'z_subj.15'
p110
(dp111
I0
g4
(g5
(I0
tS'b'
tRp112
(I1
(I0
tg8
I00
S''
tbssS'z_subj.14'
p113
(dp114
I0
g4
(g5
(I0
tS'b'
tRp115
(I1
(I0
tg8
I00
S''
tbssS'z_subj.13'
p116
(dp117
I0
g4
(g5
(I0
tS'b'
tRp118
(I1
(I0
tg8
I00
S''
tbssS'z_subj.12'
p119
(dp120
I0
g4
(g5
(I0
tS'b'
tRp121
(I1
(I0
tg8
I00
S''
tbssS'z_subj.11'
p122
(dp123
I0
g4
(g5
(I0
tS'b'
tRp124
(I1
(I0
tg8
I00
S''
tbssS'z_subj.10'
p125
(dp126
I0
g4
(g5
(I0
tS'b'
tRp127
(I1
(I0
tg8
I00
S''
tbssS'v_reg.1'
p128
(dp129
I0
g4
(g5
(I0
tS'b'
tRp130
(I1
(I0
I289
I1
tg8
I00
S''
tbssS'v_reg.2'
p131
(dp132
I0
g4
(g5
(I0
tS'b'
tRp133
(I1
(I0
I262
I1
tg8
I00
S''
tbssS'v_reg.3'
p134
(dp135
I0
g4
(g5
(I0
tS'b'
tRp136
(I1
(I0
I299
I1
tg8
I00
S''
tbssS'v_reg.4'
p137
(dp138
I0
g4
(g5
(I0
tS'b'
tRp139
(I1
(I0
I296
I1
tg8
I00
S''
tbssS'v_reg.5'
p140
(dp141
I0
g4
(g5
(I0
tS'b'
tRp142
(I1
(I0
I298
I1
tg8
I00
S''
tbssS'v_reg.6'
p143
(dp144
I0
g4
(g5
(I0
tS'b'
tRp145
(I1
(I0
I255
I1
tg8
I00
S''
tbssS'z_subj.18'
p146
(dp147
I0
g4
(g5
(I0
tS'b'
tRp148
(I1
(I0
tg8
I00
S''
tbssS'a_C(multNum)[T.1]'
p149
(dp150
I0
g4
(g5
(I0
tS'b'
tRp151
(I1
(I0
tg8
I00
S''
tbssS'z_subj.3'
p152
(dp153
I0
g4
(g5
(I0
tS'b'
tRp154
(I1
(I0
tg8
I00
S''
tbssS'z_subj.2'
p155
(dp156
I0
g4
(g5
(I0
tS'b'
tRp157
(I1
(I0
tg8
I00
S''
tbssS'z_subj.1'
p158
(dp159
I0
g4
(g5
(I0
tS'b'
tRp160
(I1
(I0
tg8
I00
S''
tbssS'z_subj.7'
p161
(dp162
I0
g4
(g5
(I0
tS'b'
tRp163
(I1
(I0
tg8
I00
S''
tbssS'z_subj.6'
p164
(dp165
I0
g4
(g5
(I0
tS'b'
tRp166
(I1
(I0
tg8
I00
S''
tbssS'z_subj.5'
p167
(dp168
I0
g4
(g5
(I0
tS'b'
tRp169
(I1
(I0
tg8
I00
S''
tbssS'z_subj.4'
p170
(dp171
I0
g4
(g5
(I0
tS'b'
tRp172
(I1
(I0
tg8
I00
S''
tbssS'z_subj.9'
p173
(dp174
I0
g4
(g5
(I0
tS'b'
tRp175
(I1
(I0
tg8
I00
S''
tbssS'z_subj.8'
p176
(dp177
I0
g4
(g5
(I0
tS'b'
tRp178
(I1
(I0
tg8
I00
S''
tbssS'a_Intercept_subj.20'
p179
(dp180
I0
g4
(g5
(I0
tS'b'
tRp181
(I1
(I0
tg8
I00
S''
tbssS'a_Intercept_subj.21'
p182
(dp183
I0
g4
(g5
(I0
tS'b'
tRp184
(I1
(I0
tg8
I00
S''
tbssS'a_Intercept_subj.22'
p185
(dp186
I0
g4
(g5
(I0
tS'b'
tRp187
(I1
(I0
tg8
I00
S''
tbssS'a_Intercept_subj.23'
p188
(dp189
I0
g4
(g5
(I0
tS'b'
tRp190
(I1
(I0
tg8
I00
S''
tbssS'a_Intercept'
p191
(dp192
I0
g4
(g5
(I0
tS'b'
tRp193
(I1
(I0
tg8
I00
S''
tbssS'_state_'
p194
(dp195
S'stochastics'
p196
(dp197
g2
g4
(g5
(I0
tS'b'
tRp198
(I1
(tg8
I00
S'\xb8\xac\xd8\x8f\xe3\xcet\xbf'
tbsg9
g4
(g5
(I0
tS'b'
tRp199
(I1
(tg8
I00
S'\xc0;\xd5\x94\xbe`\x8a\xbf'
tbsg12
g4
(g5
(I0
tS'b'
tRp200
(I1
(tg8
I00
S'\xee\x93`\x82H\xf9\xee?'
tbsg15
g4
(g5
(I0
tS'b'
tRp201
(I1
(tg8
I00
S'\xe3^\x1dV\x85)\xf3?'
tbsg18
g4
(g5
(I0
tS'b'
tRp202
(I1
(tg8
I00
S'\x04\x14\x8a5\x9a\xbd\xf2?'
tbsS't_subj.4'
p203
g4
(g5
(I0
tS'b'
tRp204
(I1
(tg8
I00
S'>S\xf5\xef\n\xdb\xe8?'
tbsg24
g4
(g5
(I0
tS'b'
tRp205
(I1
(tg8
I00
S'R\xcd\x0e\xda\xc4\x16\xf3?'
tbsg27
g4
(g5
(I0
tS'b'
tRp206
(I1
(tg8
I00
S"\xba'bY\xe9\xf3\xbd?"
tbsg30
g4
(g5
(I0
tS'b'
tRp207
(I1
(tg8
I00
S'\xcb\x97k\xf1\xee\xe8\xe3?'
tbsg33
g4
(g5
(I0
tS'b'
tRp208
(I1
(tg8
I00
S'/\xef[\xf8;\xbc\xe7?'
tbsg36
g4
(g5
(I0
tS'b'
tRp209
(I1
(tg8
I00
S'~\xa4\x86\xd3\xadW\xee?'
tbsg42
g4
(g5
(I0
tS'b'
tRp210
(I1
(tg8
I00
S'\xc6X\xf4\x06\x1d\x11\xe4?'
tbsg45
g4
(g5
(I0
tS'b'
tRp211
(I1
(tg8
I00
S'\xba\xaf\x04\xea\x95u\xed?'
tbsg48
g4
(g5
(I0
tS'b'
tRp212
(I1
(tg8
I00
S'\x10\x81\xe7a\xabD\xd0?'
tbsg51
g4
(g5
(I0
tS'b'
tRp213
(I1
(tg8
I00
S'\xda\xcc\xdd\x95\x1f\xef\xeb?'
tbsg60
g4
(g5
(I0
tS'b'
tRp214
(I1
(tg8
I00
S'\x03\xe6\x15\xadY\x95\xa8?'
tbsS'v_Intercept_subj.13'
p215
g4
(g5
(I0
tS'b'
tRp216
(I1
(tg8
I00
S'\xd9X\xc5\x10GW\xbf?'
tbsg66
g4
(g5
(I0
tS'b'
tRp217
(I1
(tg8
I00
S'\x80\x7fEp\x141e\xbf'
tbsS'v_Intercept_subj.11'
p218
g4
(g5
(I0
tS'b'
tRp219
(I1
(tg8
I00
S'\xe8\x9a\xc4\xea\xde\xfe\x9b?'
tbsg72
g4
(g5
(I0
tS'b'
tRp220
(I1
(tg8
I00
S'@\xa1\xa9\xd8r\xb5\xbd?'
tbsg75
g4
(g5
(I0
tS'b'
tRp221
(I1
(tg8
I00
S'X\xf9);\xe7\xa2\xa4?'
tbsg78
g4
(g5
(I0
tS'b'
tRp222
(I1
(tg8
I00
S'\xb0.W\x00\xd5\x13b?'
tbsg81
g4
(g5
(I0
tS'b'
tRp223
(I1
(tg8
I00
S'\xfb\x00\xd1\xcbb\x10\xc1?'
tbsg84
g4
(g5
(I0
tS'b'
tRp224
(I1
(tg8
I00
S'\x8a\xe8\xa5\x13H5\x97?'
tbsg87
g4
(g5
(I0
tS'b'
tRp225
(I1
(tg8
I00
S'\x92(w\x1b\x98T\xb8\xbf'
tbsS't'
g4
(g5
(I0
tS'b'
tRp226
(I1
(tg8
I00
S'\xf4\xb86\x90|\xf8\xe1?'
tbsS'z_subj_trans.5'
p227
g4
(g5
(I0
tS'b'
tRp228
(I1
(tg8
I00
S'\xc8s_2\x02\xf6\xa5?'
tbsg149
g4
(g5
(I0
tS'b'
tRp229
(I1
(tg8
I00
S'\xe9\x95m>\x04\xb1\xa1\xbf'
tbsg179
g4
(g5
(I0
tS'b'
tRp230
(I1
(tg8
I00
S'rQ\xc4YaW\x04@'
tbsg182
g4
(g5
(I0
tS'b'
tRp231
(I1
(tg8
I00
S'ueb@%\x81\x04@'
tbsg185
g4
(g5
(I0
tS'b'
tRp232
(I1
(tg8
I00
S'\xff\xb8w\x972\x81\n@'
tbsg188
g4
(g5
(I0
tS'b'
tRp233
(I1
(tg8
I00
S'\x86\x85,[\xd9\x19\x06@'
tbsg191
g4
(g5
(I0
tS'b'
tRp234
(I1
(tg8
I00
S's\x1a\\\x1a\x8c1\t@'
tbsg21
g4
(g5
(I0
tS'b'
tRp235
(I1
(tg8
I00
S'\x91\xeb\xdb\xd3S\x1f\xb0?'
tbsS't_subj.15'
p236
g4
(g5
(I0
tS'b'
tRp237
(I1
(tg8
I00
S'\x08\x04=\xcc\xdb\xd2\xf4?'
tbsS't_subj.14'
p238
g4
(g5
(I0
tS'b'
tRp239
(I1
(tg8
I00
S'\xb9%\x9a\xf1\x14\xdc\x00@'
tbsS't_subj.17'
p240
g4
(g5
(I0
tS'b'
tRp241
(I1
(tg8
I00
S'ZS\xf6m\xbf\xba\xeb?'
tbsS't_subj.16'
p242
g4
(g5
(I0
tS'b'
tRp243
(I1
(tg8
I00
S"4T5'\x1e\xc2\xde?"
tbsS't_subj.11'
p244
g4
(g5
(I0
tS'b'
tRp245
(I1
(tg8
I00
S'\xa1&\xe5l\xa7j\xd4?'
tbsS't_subj.10'
p246
g4
(g5
(I0
tS'b'
tRp247
(I1
(tg8
I00
S"a\x00(.'\xdc\xec?"
tbsS't_subj.13'
p248
g4
(g5
(I0
tS'b'
tRp249
(I1
(tg8
I00
S'\x99,`\x94/W\xd6?'
tbsS't_subj.12'
p250
g4
(g5
(I0
tS'b'
tRp251
(I1
(tg8
I00
S'\xd6\xff\xbe\xc9\xceN\xe5?'
tbsS't_subj.19'
p252
g4
(g5
(I0
tS'b'
tRp253
(I1
(tg8
I00
S'$\xef\\\xc6)4\xfa?'
tbsS't_subj.18'
p254
g4
(g5
(I0
tS'b'
tRp255
(I1
(tg8
I00
S'$=nP\x1e8\xe4?'
tbsS'a_Intercept_subj.11'
p256
g4
(g5
(I0
tS'b'
tRp257
(I1
(tg8
I00
S'\x06\xb1K|}\x1c\x03@'
tbsS'a_Intercept_subj.10'
p258
g4
(g5
(I0
tS'b'
tRp259
(I1
(tg8
I00
S'\xd3\xfer\xd4\xa6\xa5\x08@'
tbsS'a_Intercept_subj.13'
p260
g4
(g5
(I0
tS'b'
tRp261
(I1
(tg8
I00
S'\xa7\xe9\xd2:\x88\x96\x03@'
tbsS'a_Intercept_subj.12'
p262
g4
(g5
(I0
tS'b'
tRp263
(I1
(tg8
I00
S'F\xc6W\xe9K;\x02@'
tbsS'a_Intercept_subj.15'
p264
g4
(g5
(I0
tS'b'
tRp265
(I1
(tg8
I00
S'\xf5Z<\xd1{\x93\n@'
tbsS'a_Intercept_subj.14'
p266
g4
(g5
(I0
tS'b'
tRp267
(I1
(tg8
I00
S'*y;.\xbap\x0c@'
tbsS'a_Intercept_subj.17'
p268
g4
(g5
(I0
tS'b'
tRp269
(I1
(tg8
I00
S'\xffQ\xe5^wI\n@'
tbsS'a_Intercept_subj.16'
p270
g4
(g5
(I0
tS'b'
tRp271
(I1
(tg8
I00
S'\xb4\xd3t\xef\xdd\x89\x07@'
tbsS'a_Intercept_subj.19'
p272
g4
(g5
(I0
tS'b'
tRp273
(I1
(tg8
I00
S'\xa2O\x11\x14P*\r@'
tbsS'a_Intercept_subj.18'
p274
g4
(g5
(I0
tS'b'
tRp275
(I1
(tg8
I00
S'!k/lr\xe2\x04@'
tbsS'v_Intercept_subj.8'
p276
g4
(g5
(I0
tS'b'
tRp277
(I1
(tg8
I00
S'B\x91\x98\xe4ha\xa0\xbf'
tbsS'v_Intercept_subj.9'
p278
g4
(g5
(I0
tS'b'
tRp279
(I1
(tg8
I00
S'$Q\x15\xbb\x98\xa1\x92\xbf'
tbsS'a_Intercept_std'
p280
g4
(g5
(I0
tS'b'
tRp281
(I1
(tg8
I00
S'7B(Z\x00<\xde?'
tbsS'v_Intercept_subj.1'
p282
g4
(g5
(I0
tS'b'
tRp283
(I1
(tg8
I00
S'\x18\xfa\xf0\xc1\xa2\xda\xa3?'
tbsS'v_Intercept_subj.2'
p284
g4
(g5
(I0
tS'b'
tRp285
(I1
(tg8
I00
S'\x0f0\xe0\x87\xd9\x0e\xb1?'
tbsS'v_Intercept_subj.3'
p286
g4
(g5
(I0
tS'b'
tRp287
(I1
(tg8
I00
S'\x10\xb2\x08\xab\x85{r?'
tbsS'v_Intercept_subj.4'
p288
g4
(g5
(I0
tS'b'
tRp289
(I1
(tg8
I00
S'\\1\xca!\x84\xc5\xc1?'
tbsS'v_Intercept_subj.5'
p290
g4
(g5
(I0
tS'b'
tRp291
(I1
(tg8
I00
S'\xf3\xa5\xe8,\x10E\xb5?'
tbsS'v_Intercept_subj.6'
p292
g4
(g5
(I0
tS'b'
tRp293
(I1
(tg8
I00
S'\x00\x17\x01\x115?b?'
tbsS'v_Intercept_subj.7'
p294
g4
(g5
(I0
tS'b'
tRp295
(I1
(tg8
I00
S'\xfc\xf7\xb7l8d\xb0?'
tbsS'v_Intercept'
p296
g4
(g5
(I0
tS'b'
tRp297
(I1
(tg8
I00
S'\xc9\xd9\x1e0\x98\xeb\xa4?'
tbsS'z_subj_trans.10'
p298
g4
(g5
(I0
tS'b'
tRp299
(I1
(tg8
I00
S'vV\xa5\xecra\xc7\xbf'
tbsS'z_subj_trans.11'
p300
g4
(g5
(I0
tS'b'
tRp301
(I1
(tg8
I00
S'\xc0B\xdd\xeaH\x17k?'
tbsS'z_subj_trans.12'
p302
g4
(g5
(I0
tS'b'
tRp303
(I1
(tg8
I00
S'\xc5\xc0\x90\x1e\x8eE\xa7?'
tbsS'z_subj_trans.13'
p304
g4
(g5
(I0
tS'b'
tRp305
(I1
(tg8
I00
S'\x1c:Y\x8cz\x15\xaa\xbf'
tbsS'z_subj_trans.14'
p306
g4
(g5
(I0
tS'b'
tRp307
(I1
(tg8
I00
S'\xfb\x1d\xae\xc5p\xc0\xbc?'
tbsS'a_C(multNum)[T.2]'
p308
g4
(g5
(I0
tS'b'
tRp309
(I1
(tg8
I00
S'\x96\x18r\x95\xca\xe5\xc9?'
tbsS'z_subj_trans.16'
p310
g4
(g5
(I0
tS'b'
tRp311
(I1
(tg8
I00
S'\xc4\x8bi\xf1d\xff\xa2?'
tbsS'z_subj_trans.17'
p312
g4
(g5
(I0
tS'b'
tRp313
(I1
(tg8
I00
S'\\-\x93\x04\xfd!\x97?'
tbsS'z_subj_trans.18'
p314
g4
(g5
(I0
tS'b'
tRp315
(I1
(tg8
I00
S'\xc1\x83\x13\x00\x83]\xc0?'
tbsS'z_subj_trans.19'
p316
g4
(g5
(I0
tS'b'
tRp317
(I1
(tg8
I00
S'\x80;G\x00\x9d\x03h\xbf'
tbsS'z_std'
p318
g4
(g5
(I0
tS'b'
tRp319
(I1
(tg8
I00
S'\xe0\x05\xfe[\xd6\xd4\xb3?'
tbsg57
g4
(g5
(I0
tS'b'
tRp320
(I1
(tg8
I00
S'\xd3}\xeeW\x054\xbb\xbf'
tbsS'z_subj_trans.9'
p321
g4
(g5
(I0
tS'b'
tRp322
(I1
(tg8
I00
S'\xe4\xda\x1e\x7f\xc2\xf4\xb4?'
tbsS'z_subj_trans.2'
p323
g4
(g5
(I0
tS'b'
tRp324
(I1
(tg8
I00
S'\xc0\x9f\xa8\x96\xd0|o\xbf'
tbsS'z_subj_trans.3'
p325
g4
(g5
(I0
tS'b'
tRp326
(I1
(tg8
I00
S'\xb2o\xd0\xd9\xc8\x12\xc4?'
tbsS'z_subj_trans.1'
p327
g4
(g5
(I0
tS'b'
tRp328
(I1
(tg8
I00
S'D\x94\x88sV\xb8\xc6?'
tbsS'z_subj_trans.6'
p329
g4
(g5
(I0
tS'b'
tRp330
(I1
(tg8
I00
S'\xf0??\x82\xe8G\xae?'
tbsS'z_subj_trans.7'
p331
g4
(g5
(I0
tS'b'
tRp332
(I1
(tg8
I00
S"\x8cz\xb9'\xa9d\xa3?"
tbsS'z_subj_trans.4'
p333
g4
(g5
(I0
tS'b'
tRp334
(I1
(tg8
I00
S'\xcc\xaeT\x9eq\xbb\xa1?'
tbsg96
g4
(g5
(I0
tS'b'
tRp335
(I1
(tg8
I00
S'\x08\x14\t\xb5b\x84\xe3?'
tbsS'v_Intercept_subj.23'
p336
g4
(g5
(I0
tS'b'
tRp337
(I1
(tg8
I00
S'\xb6\x10\xaa_g\xdb\xb7?'
tbsS'v_Intercept_subj.22'
p338
g4
(g5
(I0
tS'b'
tRp339
(I1
(tg8
I00
S'fo20]\xde\x84?'
tbsS'v_Intercept_subj.21'
p340
g4
(g5
(I0
tS'b'
tRp341
(I1
(tg8
I00
S'k`\xc0\x11\xe2\xaf\xbd?'
tbsS'v_Intercept_subj.20'
p342
g4
(g5
(I0
tS'b'
tRp343
(I1
(tg8
I00
S'"\x9cP\xbe\x80\x15\xb1?'
tbsS'z_subj_trans.21'
p344
g4
(g5
(I0
tS'b'
tRp345
(I1
(tg8
I00
S'\xe2\xb1\x9c/"G\xa8?'
tbsS'z_subj_trans.20'
p346
g4
(g5
(I0
tS'b'
tRp347
(I1
(tg8
I00
S'\\\x9d\x84\xdd\xad\xd4\xaa?'
tbsS'z_subj_trans.23'
p348
g4
(g5
(I0
tS'b'
tRp349
(I1
(tg8
I00
S'\xedG\x81\xff\xa1P\xc5?'
tbsS'z_subj_trans.22'
p350
g4
(g5
(I0
tS'b'
tRp351
(I1
(tg8
I00
S'\\c\x16\xd8J7\xa0?'
tbsS'z_trans'
p352
g4
(g5
(I0
tS'b'
tRp353
(I1
(tg8
I00
S'{3@\xd9\x92\xa6\x99?'
tbsS'a_Intercept_subj.5'
p354
g4
(g5
(I0
tS'b'
tRp355
(I1
(tg8
I00
S'\x1bs\xe1iM\xa0\x07@'
tbsS'a_Intercept_subj.4'
p356
g4
(g5
(I0
tS'b'
tRp357
(I1
(tg8
I00
S';\xf2\x0b\xfd\x02\x0e\x04@'
tbsS'a_Intercept_subj.7'
p358
g4
(g5
(I0
tS'b'
tRp359
(I1
(tg8
I00
S'\xfd`\xe8\xca\xf1\x9f\x0b@'
tbsS'a_Intercept_subj.6'
p360
g4
(g5
(I0
tS'b'
tRp361
(I1
(tg8
I00
S'\xe2e*\xf0\xbb\xd3\x0f@'
tbsS'a_Intercept_subj.1'
p362
g4
(g5
(I0
tS'b'
tRp363
(I1
(tg8
I00
S's\xcd\xb7\xdch`\n@'
tbsS'a_Intercept_subj.3'
p364
g4
(g5
(I0
tS'b'
tRp365
(I1
(tg8
I00
S'\xcd\x88@\x0c\x1dm\x00@'
tbsS'a_Intercept_subj.2'
p366
g4
(g5
(I0
tS'b'
tRp367
(I1
(tg8
I00
S'.Fw\xa9\xc5*\x0f@'
tbsS'a_Intercept_subj.9'
p368
g4
(g5
(I0
tS'b'
tRp369
(I1
(tg8
I00
S'\x97)2\x9b\x8d\x89\x05@'
tbsS'a_Intercept_subj.8'
p370
g4
(g5
(I0
tS'b'
tRp371
(I1
(tg8
I00
S'\xb9O)\xd6\x85\xf4\x05@'
tbsS'z_subj_trans.15'
p372
g4
(g5
(I0
tS'b'
tRp373
(I1
(tg8
I00
S'\x90M\xc0P\x06\x9f\x95?'
tbssS'step_methods'
p374
(dp375
S'SliceStep_a_Intercept'
p376
(dp377
S'adaptive_scale_factor'
p378
F1
sS'proposal_distribution'
p379
S'Normal'
p380
sS'proposal_sd'
p381
cnumpy.core.multiarray
scalar
p382
(g8
S'\x00\x00\x00\x00\x00\x00\xf0?'
tRp383
sS'accepted'
p384
F0
sS'check_before_accepting'
p385
I01
sS'rejected'
p386
F0
ssS'SliceStep_v_Intercept_subj.15'
p387
(dp388
g378
F1
sg379
g380
sg381
g382
(g8
S'\x00\x00\x00\x00\x00\x00\xf0?'
tRp389
sg384
F0
sg385
I01
sg386
F0
ssS'SliceStep_v_Intercept_subj.14'
p390
(dp391
g378
F1
sg379
g380
sg381
g382
(g8
S'\x00\x00\x00\x00\x00\x00\xf0?'
tRp392
sg384
F0
sg385
I01
sg386
F0
ssS'SliceStep_v_Intercept_subj.17'
p393
(dp394
g378
F1
sg379
g380
sg381
g382
(g8
S'\x00\x00\x00\x00\x00\x00\xf0?'
tRp395
sg384
F0
sg385
I01
sg386
F0
ssS'SliceStep_v_Intercept_subj.16'
p396
(dp397
g378
F1
sg379
g380
sg381
g382
(g8
S'\x00\x00\x00\x00\x00\x00\xf0?'
tRp398
sg384
F0
sg385
I01
sg386
F0
ssS'SliceStep_v_Intercept_subj.11'
p399
(dp400
g378
F1
sg379
g380
sg381
g382
(g8
S'\x00\x00\x00\x00\x00\x00\xf0?'
tRp401
sg384
F0
sg385
I01
sg386
F0
ssS'SliceStep_v_Intercept_subj.10'
p402
(dp403
g378
F1
sg379
g380
sg381
g382
(g8
S'\x00\x00\x00\x00\x00\x00\xf0?'
tRp404
sg384
F0
sg385
I01
sg386
F0
ssS'SliceStep_v_Intercept_subj.13'
p405
(dp406
g378
F1
sg379
g380
sg381
g382
(g8
S'\x00\x00\x00\x00\x00\x00\xf0?'
tRp407
sg384
F0
sg385
I01
sg386
F0
ssS'SliceStep_v_Intercept_subj.12'
p408
(dp409
g378
F1
sg379
g380
sg381
g382
(g8
S'\x00\x00\x00\x00\x00\x00\xf0?'
tRp410
sg384
F0
sg385
I01
sg386
F0
ssS'SliceStep_z_subj_trans.22'
p411
(dp412
g378
F1
sg379
g380
sg381
g382
(g8
S'\x00\x00\x00\x00\x00\x00\xf0?'
tRp413
sg384
F0
sg385
I01
sg386
F0
ssS'SliceStep_v_Intercept_subj.19'
p414
(dp415
g378
F1
sg379
g380
sg381
g382
(g8
S'\x00\x00\x00\x00\x00\x00\xf0?'
tRp416
sg384
F0
sg385
I01
sg386
F0
ssS'SliceStep_v_Intercept_subj.18'
p417
(dp418
g378
F1
sg379
g380
sg381
g382
(g8
S'\x00\x00\x00\x00\x00\x00\xf0?'
tRp419
sg384
F0
sg385
I01
sg386
F0
ssS'SliceStep_t_subj.9'
p420
(dp421
g378
F1
sg379
g380
sg381
g382
(g8
S'{\x14\xaeG\xe1z\x84?'
tRp422
sg384
F0
sg385
I01
sg386
F0
ssS'SliceStep_t_subj.4'
p423
(dp424
g378
F1
sg379
g380
sg381
g382
(g8
S'{\x14\xaeG\xe1z\x84?'
tRp425
sg384
F0
sg385
I01
sg386
F0
ssS'SliceStep_t_subj.5'
p426
(dp427
g378
F1
sg379
g380
sg381
g382
(g8
S'{\x14\xaeG\xe1z\x84?'
tRp428
sg384
F0
sg385
I01
sg386
F0
ssS'kNormalNormal_z_trans'
p429
(dp430
g378
F1
sg379
g380
sg381
g382
(g8
S'\x00\x00\x00\x00\x00\x00\xf0?'
tRp431
sg384
F0
sg385
I01
sg386
F0
ssS'SliceStep_t_subj.7'
p432
(dp433
g378
F1
sg379
g380
sg381
g382
(g8
S'{\x14\xaeG\xe1z\x84?'
tRp434
sg384
F0
sg385
I01
sg386
F0
ssS'SliceStep_t_subj.1'
p435
(dp436
g378
F1
sg379
g380
sg381
g382
(g8
S'{\x14\xaeG\xe1z\x84?'
tRp437
sg384
F0
sg385
I01
sg386
F0
ssS'SliceStep_t_subj.2'
p438
(dp439
g378
F1
sg379
g380
sg381
g382
(g8
S'{\x14\xaeG\xe1z\x84?'
tRp440
sg384
F0
sg385
I01
sg386
F0
ssS'SliceStep_t_subj.3'
p441
(dp442
g378
F1
sg379
g380
sg381
g382
(g8
S'{\x14\xaeG\xe1z\x84?'
tRp443
sg384
F0
sg385
I01
sg386
F0
ssS'SliceStep_t_subj.8'
p444
(dp445
g378
F1
sg379
g380
sg381
g382
(g8
S'{\x14\xaeG\xe1z\x84?'
tRp446
sg384
F0
sg385
I01
sg386
F0
ssS'SliceStep_t_subj.6'
p447
(dp448
g378
F1
sg379
g380
sg381
g382
(g8
S'{\x14\xaeG\xe1z\x84?'
tRp449
sg384
F0
sg385
I01
sg386
F0
ssS'SliceStep_z_subj_trans.20'
p450
(dp451
g378
F1
sg379
g380
sg381
g382
(g8
S'\x00\x00\x00\x00\x00\x00\xf0?'
tRp452
sg384
F0
sg385
I01
sg386
F0
ssS'SliceStep_z_subj_trans.21'
p453
(dp454
g378
F1
sg379
g380
sg381
g382
(g8
S'\x00\x00\x00\x00\x00\x00\xf0?'
tRp455
sg384
F0
sg385
I01
sg386
F0
ssS'SliceStep_v_Intercept_std'
p456
(dp457
g378
F1
sg379
g380
sg381
g382
(g8
S'\x9a\x99\x99\x99\x99\x99\xb9?'
tRp458
sg384
F0
sg385
I01
sg386
F0
ssS'SliceStep_z_subj_trans.13'
p459
(dp460
g378
F1
sg379
g380
sg381
g382
(g8
S'\x00\x00\x00\x00\x00\x00\xf0?'
tRp461
sg384
F0
sg385
I01
sg386
F0
ssS'SliceStep_z_subj_trans.12'
p462
(dp463
g378
F1
sg379
g380
sg381
g382
(g8
S'\x00\x00\x00\x00\x00\x00\xf0?'
tRp464
sg384
F0
sg385
I01
sg386
F0
ssS'SliceStep_z_subj_trans.11'
p465
(dp466
g378
F1
sg379
g380
sg381
g382
(g8
S'\x00\x00\x00\x00\x00\x00\xf0?'
tRp467
sg384
F0
sg385
I01
sg386
F0
ssS'SliceStep_z_subj_trans.10'
p468
(dp469
g378
F1
sg379
g380
sg381
g382
(g8
S'\x00\x00\x00\x00\x00\x00\xf0?'
tRp470
sg384
F0
sg385
I01
sg386
F0
ssS'SliceStep_z_subj_trans.17'
p471
(dp472
g378
F1
sg379
g380
sg381
g382
(g8
S'\x00\x00\x00\x00\x00\x00\xf0?'
tRp473
sg384
F0
sg385
I01
sg386
F0
ssS'SliceStep_z_subj_trans.16'
p474
(dp475
g378
F1
sg379
g380
sg381
g382
(g8
S'\x00\x00\x00\x00\x00\x00\xf0?'
tRp476
sg384
F0
sg385
I01
sg386
F0
ssS'SliceStep_z_subj_trans.15'
p477
(dp478
g378
F1
sg379
g380
sg381
g382
(g8
S'\x00\x00\x00\x00\x00\x00\xf0?'
tRp479
sg384
F0
sg385
I01
sg386
F0
ssS'SliceStep_z_subj_trans.14'
p480
(dp481
g378
F1
sg379
g380
sg381
g382
(g8
S'\x00\x00\x00\x00\x00\x00\xf0?'
tRp482
sg384
F0
sg385
I01
sg386
F0
ssS'SliceStep_z_subj_trans.19'
p483
(dp484
g378
F1
sg379
g380
sg381
g382
(g8
S'\x00\x00\x00\x00\x00\x00\xf0?'
tRp485
sg384
F0
sg385
I01
sg386
F0
ssS'SliceStep_z_subj_trans.18'
p486
(dp487
g378
F1
sg379
g380
sg381
g382
(g8
S'\x00\x00\x00\x00\x00\x00\xf0?'
tRp488
sg384
F0
sg385
I01
sg386
F0
ssS'SliceStep_t_subj.16'
p489
(dp490
g378
F1
sg379
g380
sg381
g382
(g8
S'{\x14\xaeG\xe1z\x84?'
tRp491
sg384
F0
sg385
I01
sg386
F0
ssS'SliceStep_t_subj.17'
p492
(dp493
g378
F1
sg379
g380
sg381
g382
(g8
S'{\x14\xaeG\xe1z\x84?'
tRp494
sg384
F0
sg385
I01
sg386
F0
ssS'SliceStep_t_subj.14'
p495
(dp496
g378
F1
sg379
g380
sg381
g382
(g8
S'{\x14\xaeG\xe1z\x84?'
tRp497
sg384
F0
sg385
I01
sg386
F0
ssS'SliceStep_t_subj.15'
p498
(dp499
g378
F1
sg379
g380
sg381
g382
(g8
S'{\x14\xaeG\xe1z\x84?'
tRp500
sg384
F0
sg385
I01
sg386
F0
ssS'SliceStep_t_subj.12'
p501
(dp502
g378
F1
sg379
g380
sg381
g382
(g8
S'{\x14\xaeG\xe1z\x84?'
tRp503
sg384
F0
sg385
I01
sg386
F0
ssS'SliceStep_t_subj.13'
p504
(dp505
g378
F1
sg379
g380
sg381
g382
(g8
S'{\x14\xaeG\xe1z\x84?'
tRp506
sg384
F0
sg385
I01
sg386
F0
ssS'SliceStep_t_subj.10'
p507
(dp508
g378
F1
sg379
g380
sg381
g382
(g8
S'{\x14\xaeG\xe1z\x84?'
tRp509
sg384
F0
sg385
I01
sg386
F0
ssS'SliceStep_t_subj.11'
p510
(dp511
g378
F1
sg379
g380
sg381
g382
(g8
S'{\x14\xaeG\xe1z\x84?'
tRp512
sg384
F0
sg385
I01
sg386
F0
ssS'SliceStep_a_C(multNum)[T.2]'
p513
(dp514
g378
F1
sg379
g380
sg381
g382
(g8
S'\x00\x00\x00\x00\x00\x00\xf0?'
tRp515
sg384
F0
sg385
I01
sg386
F0
ssS'SliceStep_t_subj.18'
p516
(dp517
g378
F1
sg379
g380
sg381
g382
(g8
S'{\x14\xaeG\xe1z\x84?'
tRp518
sg384
F0
sg385
I01
sg386
F0
ssS'SliceStep_t_subj.19'
p519
(dp520
g378
F1
sg379
g380
sg381
g382
(g8
S'{\x14\xaeG\xe1z\x84?'
tRp521
sg384
F0
sg385
I01
sg386
F0
ssS'SliceStep_t'
p522
(dp523
g378
F1
sg379
g380
sg381
g382
(g8
S'{\x14\xaeG\xe1z\x84?'
tRp524
sg384
F0
sg385
I01
sg386
F0
ssS'SliceStep_a_Intercept_subj.4'
p525
(dp526
g378
F1
sg379
g380
sg381
g382
(g8
S'\x00\x00\x00\x00\x00\x00\xf0?'
tRp527
sg384
F0
sg385
I01
sg386
F0
ssS'SliceStep_a_Intercept_subj.5'
p528
(dp529
g378
F1
sg379
g380
sg381
g382
(g8
S'\x00\x00\x00\x00\x00\x00\xf0?'
tRp530
sg384
F0
sg385
I01
sg386
F0
ssS'SliceStep_a_Intercept_subj.6'
p531
(dp532
g378
F1
sg379
g380
sg381
g382
(g8
S'\x00\x00\x00\x00\x00\x00\xf0?'
tRp533
sg384
F0
sg385
I01
sg386
F0
ssS'SliceStep_a_Intercept_subj.7'
p534
(dp535
g378
F1
sg379
g380
sg381
g382
(g8
S'\x00\x00\x00\x00\x00\x00\xf0?'
tRp536
sg384
F0
sg385
I01
sg386
F0
ssS'SliceStep_a_Intercept_subj.1'
p537
(dp538
g378
F1
sg379
g380
sg381
g382
(g8
S'\x00\x00\x00\x00\x00\x00\xf0?'
tRp539
sg384
F0
sg385
I01
sg386
F0
ssS'SliceStep_a_Intercept_subj.2'
p540
(dp541
g378
F1
sg379
g380
sg381
g382
(g8
S'\x00\x00\x00\x00\x00\x00\xf0?'
tRp542
sg384
F0
sg385
I01
sg386
F0
ssS'SliceStep_a_Intercept_subj.3'
p543
(dp544
g378
F1
sg379
g380
sg381
g382
(g8
S'\x00\x00\x00\x00\x00\x00\xf0?'
tRp545
sg384
F0
sg385
I01
sg386
F0
ssS'SliceStep_a_Intercept_subj.8'
p546
(dp547
g378
F1
sg379
g380
sg381
g382
(g8
S'\x00\x00\x00\x00\x00\x00\xf0?'
tRp548
sg384
F0
sg385
I01
sg386
F0
ssS'SliceStep_a_Intercept_subj.9'
p549
(dp550
g378
F1
sg379
g380
sg381
g382
(g8
S'\x00\x00\x00\x00\x00\x00\xf0?'
tRp551
sg384
F0
sg385
I01
sg386
F0
ssS'SliceStep_z_subj_trans.23'
p552
(dp553
g378
F1
sg379
g380
sg381
g382
(g8
S'\x00\x00\x00\x00\x00\x00\xf0?'
tRp554
sg384
F0
sg385
I01
sg386
F0
ssS'SliceStep_v_Intercept_subj.20'
p555
(dp556
g378
F1
sg379
g380
sg381
g382
(g8
S'\x00\x00\x00\x00\x00\x00\xf0?'
tRp557
sg384
F0
sg385
I01
sg386
F0
ssS'SliceStep_v_Intercept_subj.21'
p558
(dp559
g378
F1
sg379
g380
sg381
g382
(g8
S'\x00\x00\x00\x00\x00\x00\xf0?'
tRp560
sg384
F0
sg385
I01
sg386
F0
ssS'SliceStep_v_Intercept_subj.22'
p561
(dp562
g378
F1
sg379
g380
sg381
g382
(g8
S'\x00\x00\x00\x00\x00\x00\xf0?'
tRp563
sg384
F0
sg385
I01
sg386
F0
ssS'SliceStep_v_Intercept_subj.23'
p564
(dp565
g378
F1
sg379
g380
sg381
g382
(g8
S'\x00\x00\x00\x00\x00\x00\xf0?'
tRp566
sg384
F0
sg385
I01
sg386
F0
ssS'SliceStep_a_Intercept_subj.16'
p567
(dp568
g378
F1
sg379
g380
sg381
g382
(g8
S'\x00\x00\x00\x00\x00\x00\xf0?'
tRp569
sg384
F0
sg385
I01
sg386
F0
ssS'SliceStep_a_Intercept_subj.17'
p570
(dp571
g378
F1
sg379
g380
sg381
g382
(g8
S'\x00\x00\x00\x00\x00\x00\xf0?'
tRp572
sg384
F0
sg385
I01
sg386
F0
ssS'SliceStep_a_Intercept_subj.14'
p573
(dp574
g378
F1
sg379
g380
sg381
g382
(g8
S'\x00\x00\x00\x00\x00\x00\xf0?'
tRp575
sg384
F0
sg385
I01
sg386
F0
ssS'SliceStep_a_Intercept_subj.15'
p576
(dp577
g378
F1
sg379
g380
sg381
g382
(g8
S'\x00\x00\x00\x00\x00\x00\xf0?'
tRp578
sg384
F0
sg385
I01
sg386
F0
ssS'SliceStep_a_Intercept_subj.12'
p579
(dp580
g378
F1
sg379
g380
sg381
g382
(g8
S'\x00\x00\x00\x00\x00\x00\xf0?'
tRp581
sg384
F0
sg385
I01
sg386
F0
ssS'SliceStep_a_Intercept_subj.13'
p582
(dp583
g378
F1
sg379
g380
sg381
g382
(g8
S'\x00\x00\x00\x00\x00\x00\xf0?'
tRp584
sg384
F0
sg385
I01
sg386
F0
ssS'SliceStep_a_Intercept_subj.10'
p585
(dp586
g378
F1
sg379
g380
sg381
g382
(g8
S'\x00\x00\x00\x00\x00\x00\xf0?'
tRp587
sg384
F0
sg385
I01
sg386
F0
ssS'SliceStep_a_Intercept_subj.11'
p588
(dp589
g378
F1
sg379
g380
sg381
g382
(g8
S'\x00\x00\x00\x00\x00\x00\xf0?'
tRp590
sg384
F0
sg385
I01
sg386
F0
ssS'SliceStep_a_Intercept_subj.18'
p591
(dp592
g378
F1
sg379
g380
sg381
g382
(g8
S'\x00\x00\x00\x00\x00\x00\xf0?'
tRp593
sg384
F0
sg385
I01
sg386
F0
ssS'SliceStep_a_Intercept_subj.19'
p594
(dp595
g378
F1
sg379
g380
sg381
g382
(g8
S'\x00\x00\x00\x00\x00\x00\xf0?'
tRp596
sg384
F0
sg385
I01
sg386
F0
ssS'SliceStep_t_std'
p597
(dp598
g378
F1
sg379
g380
sg381
g382
(g8
S'\x9a\x99\x99\x99\x99\x99\xb9?'
tRp599
sg384
F0
sg385
I01
sg386
F0
ssS'SliceStep_v_Intercept_subj.5'
p600
(dp601
g378
F1
sg379
g380
sg381
g382
(g8
S'\x00\x00\x00\x00\x00\x00\xf0?'
tRp602
sg384
F0
sg385
I01
sg386
F0
ssS'SliceStep_a_Intercept_subj.22'
p603
(dp604
g378
F1
sg379
g380
sg381
g382
(g8
S'\x00\x00\x00\x00\x00\x00\xf0?'
tRp605
sg384
F0
sg385
I01
sg386
F0
ssS'SliceStep_a_Intercept_subj.21'
p606
(dp607
g378
F1
sg379
g380
sg381
g382
(g8
S'\x00\x00\x00\x00\x00\x00\xf0?'
tRp608
sg384
F0
sg385
I01
sg386
F0
ssS'SliceStep_v_Intercept_subj.6'
p609
(dp610
g378
F1
sg379
g380
sg381
g382
(g8
S'\x00\x00\x00\x00\x00\x00\xf0?'
tRp611
sg384
F0
sg385
I01
sg386
F0
ssS'SliceStep_v_Intercept_subj.1'
p612
(dp613
g378
F1
sg379
g380
sg381
g382
(g8
S'\x00\x00\x00\x00\x00\x00\xf0?'
tRp614
sg384
F0
sg385
I01
sg386
F0
ssS'SliceStep_v_Intercept_subj.3'
p615
(dp616
g378
F1
sg379
g380
sg381
g382
(g8
S'\x00\x00\x00\x00\x00\x00\xf0?'
tRp617
sg384
F0
sg385
I01
sg386
F0
ssS'SliceStep_v_Intercept_subj.2'
p618
(dp619
g378
F1
sg379
g380
sg381
g382
(g8
S'\x00\x00\x00\x00\x00\x00\xf0?'
tRp620
sg384
F0
sg385
I01
sg386
F0
ssS'SliceStep_v_Intercept_subj.9'
p621
(dp622
g378
F1
sg379
g380
sg381
g382
(g8
S'\x00\x00\x00\x00\x00\x00\xf0?'
tRp623
sg384
F0
sg385
I01
sg386
F0
ssS'SliceStep_v_Intercept_subj.8'
p624
(dp625
g378
F1
sg379
g380
sg381
g382
(g8
S'\x00\x00\x00\x00\x00\x00\xf0?'
tRp626
sg384
F0
sg385
I01
sg386
F0
ssS'SliceStep_v_total_0_face'
p627
(dp628
g378
F1
sg379
g380
sg381
g382
(g8
S'\x00\x00\x00\x00\x00\x00\xf0?'
tRp629
sg384
F0
sg385
I01
sg386
F0
ssS'SliceStep_a_Intercept_subj.23'
p630
(dp631
g378
F1
sg379
g380
sg381
g382
(g8
S'\x00\x00\x00\x00\x00\x00\xf0?'
tRp632
sg384
F0
sg385
I01
sg386
F0
ssS'SliceStep_a_C(multNum)[T.1]'
p633
(dp634
g378
F1
sg379
g380
sg381
g382
(g8
S'\x00\x00\x00\x00\x00\x00\xf0?'
tRp635
sg384
F0
sg385
I01
sg386
F0
ssS'SliceStep_v_Intercept_subj.4'
p636
(dp637
g378
F1
sg379
g380
sg381
g382
(g8
S'\x00\x00\x00\x00\x00\x00\xf0?'
tRp638
sg384
F0
sg385
I01
sg386
F0
ssS'SliceStep_v_Intercept_subj.7'
p639
(dp640
g378
F1
sg379
g380
sg381
g382
(g8
S'\x00\x00\x00\x00\x00\x00\xf0?'
tRp641
sg384
F0
sg385
I01
sg386
F0
ssS'SliceStep_a_Intercept_subj.20'
p642
(dp643
g378
F1
sg379
g380
sg381
g382
(g8
S'\x00\x00\x00\x00\x00\x00\xf0?'
tRp644
sg384
F0
sg385
I01
sg386
F0
ssS'SliceStep_z_subj_trans.7'
p645
(dp646
g378
F1
sg379
g380
sg381
g382
(g8
S'\x00\x00\x00\x00\x00\x00\xf0?'
tRp647
sg384
F0
sg385
I01
sg386
F0
ssS'SliceStep_z_subj_trans.6'
p648
(dp649
g378
F1
sg379
g380
sg381
g382
(g8
S'\x00\x00\x00\x00\x00\x00\xf0?'
tRp650
sg384
F0
sg385
I01
sg386
F0
ssS'SliceStep_z_subj_trans.5'
p651
(dp652
g378
F1
sg379
g380
sg381
g382
(g8
S'\x00\x00\x00\x00\x00\x00\xf0?'
tRp653
sg384
F0
sg385
I01
sg386
F0
ssS'SliceStep_z_subj_trans.4'
p654
(dp655
g378
F1
sg379
g380
sg381
g382
(g8
S'\x00\x00\x00\x00\x00\x00\xf0?'
tRp656
sg384
F0
sg385
I01
sg386
F0
ssS'SliceStep_z_subj_trans.3'
p657
(dp658
g378
F1
sg379
g380
sg381
g382
(g8
S'\x00\x00\x00\x00\x00\x00\xf0?'
tRp659
sg384
F0
sg385
I01
sg386
F0
ssS'SliceStep_z_subj_trans.2'
p660
(dp661
g378
F1
sg379
g380
sg381
g382
(g8
S'\x00\x00\x00\x00\x00\x00\xf0?'
tRp662
sg384
F0
sg385
I01
sg386
F0
ssS'SliceStep_z_subj_trans.1'
p663
(dp664
g378
F1
sg379
g380
sg381
g382
(g8
S'\x00\x00\x00\x00\x00\x00\xf0?'
tRp665
sg384
F0
sg385
I01
sg386
F0
ssS'SliceStep_z_subj_trans.9'
p666
(dp667
g378
F1
sg379
g380
sg381
g382
(g8
S'\x00\x00\x00\x00\x00\x00\xf0?'
tRp668
sg384
F0
sg385
I01
sg386
F0
ssS'SliceStep_z_subj_trans.8'
p669
(dp670
g378
F1
sg379
g380
sg381
g382
(g8
S'\x00\x00\x00\x00\x00\x00\xf0?'
tRp671
sg384
F0
sg385
I01
sg386
F0
ssS'SliceStep_z_std'
p672
(dp673
g378
F1
sg379
g380
sg381
g382
(g8
S'\x9a\x99\x99\x99\x99\x99\xb9?'
tRp674
sg384
F0
sg385
I01
sg386
F0
ssS'kNormalNormal_v_Intercept'
p675
(dp676
g378
F1
sg379
g380
sg381
g382
(g8
S'\x00\x00\x00\x00\x00\x00\xf0?'
tRp677
sg384
F0
sg385
I01
sg386
F0
ssS'SliceStep_v_total_1_house'
p678
(dp679
g378
F1
sg379
g380
sg381
g382
(g8
S'\x00\x00\x00\x00\x00\x00\xf0?'
tRp680
sg384
F0
sg385
I01
sg386
F0
ssS'SliceStep_t_subj.23'
p681
(dp682
g378
F1
sg379
g380
sg381
g382
(g8
S'{\x14\xaeG\xe1z\x84?'
tRp683
sg384
F0
sg385
I01
sg386
F0
ssS'SliceStep_t_subj.22'
p684
(dp685
g378
F1
sg379
g380
sg381
g382
(g8
S'{\x14\xaeG\xe1z\x84?'
tRp686
sg384
F0
sg385
I01
sg386
F0
ssS'SliceStep_t_subj.21'
p687
(dp688
g378
F1
sg379
g380
sg381
g382
(g8
S'{\x14\xaeG\xe1z\x84?'
tRp689
sg384
F0
sg385
I01
sg386
F0
ssS'SliceStep_t_subj.20'
p690
(dp691
g378
F1
sg379
g380
sg381
g382
(g8
S'{\x14\xaeG\xe1z\x84?'
tRp692
sg384
F0
sg385
I01
sg386
F0
ssS'SliceStep_a_Intercept_std'
p693
(dp694
g378
F1
sg379
g380
sg381
g382
(g8
S'\x9a\x99\x99\x99\x99\x99\xb9?'
tRp695
sg384
F0
sg385
I01
sg386
F0
sssS'sampler'
p696
(dp697
S'status'
p698
S'ready'
p699
sS'_iter'
p700
g382
(g7
(S'i8'
I0
I1
tRp701
(I3
S'<'
NNNI-1
I-1
I0
tbS'|\x15\x00\x00\x00\x00\x00\x00'
tRp702
sS'_tune_interval'
p703
I1000
sS'_tuned_count'
p704
I0
sS'_tune_throughout'
p705
I01
sS'_burn_till_tuned'
p706
I00
sS'_current_iter'
p707
I23
sS'_burn'
p708
I500
sS'_thin'
p709
I1
sssg236
(dp710
I0
g4
(g5
(I0
tS'b'
tRp711
(I1
(I0
tg8
I00
S''
tbssg238
(dp712
I0
g4
(g5
(I0
tS'b'
tRp713
(I1
(I0
tg8
I00
S''
tbssg240
(dp714
I0
g4
(g5
(I0
tS'b'
tRp715
(I1
(I0
tg8
I00
S''
tbssg242
(dp716
I0
g4
(g5
(I0
tS'b'
tRp717
(I1
(I0
tg8
I00
S''
tbssg244
(dp718
I0
g4
(g5
(I0
tS'b'
tRp719
(I1
(I0
tg8
I00
S''
tbssg246
(dp720
I0
g4
(g5
(I0
tS'b'
tRp721
(I1
(I0
tg8
I00
S''
tbssg248
(dp722
I0
g4
(g5
(I0
tS'b'
tRp723
(I1
(I0
tg8
I00
S''
tbssg250
(dp724
I0
g4
(g5
(I0
tS'b'
tRp725
(I1
(I0
tg8
I00
S''
tbssg288
(dp726
I0
g4
(g5
(I0
tS'b'
tRp727
(I1
(I0
tg8
I00
S''
tbssg252
(dp728
I0
g4
(g5
(I0
tS'b'
tRp729
(I1
(I0
tg8
I00
S''
tbssg254
(dp730
I0
g4
(g5
(I0
tS'b'
tRp731
(I1
(I0
tg8
I00
S''
tbssS'v_reg.22'
p732
(dp733
I0
g4
(g5
(I0
tS'b'
tRp734
(I1
(I0
I293
I1
tg8
I00
S''
tbssg256
(dp735
I0
g4
(g5
(I0
tS'b'
tRp736
(I1
(I0
tg8
I00
S''
tbssg258
(dp737
I0
g4
(g5
(I0
tS'b'
tRp738
(I1
(I0
tg8
I00
S''
tbssg260
(dp739
I0
g4
(g5
(I0
tS'b'
tRp740
(I1
(I0
tg8
I00
S''
tbssg262
(dp741
I0
g4
(g5
(I0
tS'b'
tRp742
(I1
(I0
tg8
I00
S''
tbssg264
(dp743
I0
g4
(g5
(I0
tS'b'
tRp744
(I1
(I0
tg8
I00
S''
tbssg266
(dp745
I0
g4
(g5
(I0
tS'b'
tRp746
(I1
(I0
tg8
I00
S''
tbssg268
(dp747
I0
g4
(g5
(I0
tS'b'
tRp748
(I1
(I0
tg8
I00
S''
tbssg270
(dp749
I0
g4
(g5
(I0
tS'b'
tRp750
(I1
(I0
tg8
I00
S''
tbssg272
(dp751
I0
g4
(g5
(I0
tS'b'
tRp752
(I1
(I0
tg8
I00
S''
tbssg274
(dp753
I0
g4
(g5
(I0
tS'b'
tRp754
(I1
(I0
tg8
I00
S''
tbssS'v_reg.20'
p755
(dp756
I0
g4
(g5
(I0
tS'b'
tRp757
(I1
(I0
I299
I1
tg8
I00
S''
tbssg276
(dp758
I0
g4
(g5
(I0
tS'b'
tRp759
(I1
(I0
tg8
I00
S''
tbssg278
(dp760
I0
g4
(g5
(I0
tS'b'
tRp761
(I1
(I0
tg8
I00
S''
tbssg280
(dp762
I0
g4
(g5
(I0
tS'b'
tRp763
(I1
(I0
tg8
I00
S''
tbssg282
(dp764
I0
g4
(g5
(I0
tS'b'
tRp765
(I1
(I0
tg8
I00
S''
tbssg284
(dp766
I0
g4
(g5
(I0
tS'b'
tRp767
(I1
(I0
tg8
I00
S''
tbssg286
(dp768
I0
g4
(g5
(I0
tS'b'
tRp769
(I1
(I0
tg8
I00
S''
tbssS'v_reg.23'
p770
(dp771
I0
g4
(g5
(I0
tS'b'
tRp772
(I1
(I0
I299
I1
tg8
I00
S''
tbssg290
(dp773
I0
g4
(g5
(I0
tS'b'
tRp774
(I1
(I0
tg8
I00
S''
tbssg292
(dp775
I0
g4
(g5
(I0
tS'b'
tRp776
(I1
(I0
tg8
I00
S''
tbssg294
(dp777
I0
g4
(g5
(I0
tS'b'
tRp778
(I1
(I0
tg8
I00
S''
tbssg296
(dp779
I0
g4
(g5
(I0
tS'b'
tRp780
(I1
(I0
tg8
I00
S''
tbssg298
(dp781
I0
g4
(g5
(I0
tS'b'
tRp782
(I1
(I0
tg8
I00
S''
tbssg300
(dp783
I0
g4
(g5
(I0
tS'b'
tRp784
(I1
(I0
tg8
I00
S''
tbssg302
(dp785
I0
g4
(g5
(I0
tS'b'
tRp786
(I1
(I0
tg8
I00
S''
tbssg304
(dp787
I0
g4
(g5
(I0
tS'b'
tRp788
(I1
(I0
tg8
I00
S''
tbssg203
(dp789
I0
g4
(g5
(I0
tS'b'
tRp790
(I1
(I0
tg8
I00
S''
tbssg308
(dp791
I0
g4
(g5
(I0
tS'b'
tRp792
(I1
(I0
tg8
I00
S''
tbssg310
(dp793
I0
g4
(g5
(I0
tS'b'
tRp794
(I1
(I0
tg8
I00
S''
tbssg312
(dp795
I0
g4
(g5
(I0
tS'b'
tRp796
(I1
(I0
tg8
I00
S''
tbssg314
(dp797
I0
g4
(g5
(I0
tS'b'
tRp798
(I1
(I0
tg8
I00
S''
tbssg316
(dp799
I0
g4
(g5
(I0
tS'b'
tRp800
(I1
(I0
tg8
I00
S''
tbssg318
(dp801
I0
g4
(g5
(I0
tS'b'
tRp802
(I1
(I0
tg8
I00
S''
tbssS'v_reg.12'
p803
(dp804
I0
g4
(g5
(I0
tS'b'
tRp805
(I1
(I0
I297
I1
tg8
I00
S''
tbssS'v_reg.8'
p806
(dp807
I0
g4
(g5
(I0
tS'b'
tRp808
(I1
(I0
I298
I1
tg8
I00
S''
tbssS'v_reg.10'
p809
(dp810
I0
g4
(g5
(I0
tS'b'
tRp811
(I1
(I0
I292
I1
tg8
I00
S''
tbssg321
(dp812
I0
g4
(g5
(I0
tS'b'
tRp813
(I1
(I0
tg8
I00
S''
tbssS'v_reg.16'
p814
(dp815
I0
g4
(g5
(I0
tS'b'
tRp816
(I1
(I0
I298
I1
tg8
I00
S''
tbssS'v_reg.17'
p817
(dp818
I0
g4
(g5
(I0
tS'b'
tRp819
(I1
(I0
I287
I1
tg8
I00
S''
tbssS'v_reg.14'
p820
(dp821
I0
g4
(g5
(I0
tS'b'
tRp822
(I1
(I0
I234
I1
tg8
I00
S''
tbssS'v_reg.9'
p823
(dp824
I0
g4
(g5
(I0
tS'b'
tRp825
(I1
(I0
I298
I1
tg8
I00
S''
tbssg323
(dp826
I0
g4
(g5
(I0
tS'b'
tRp827
(I1
(I0
tg8
I00
S''
tbssg325
(dp828
I0
g4
(g5
(I0
tS'b'
tRp829
(I1
(I0
tg8
I00
S''
tbssS'v_reg.18'
p830
(dp831
I0
g4
(g5
(I0
tS'b'
tRp832
(I1
(I0
I295
I1
tg8
I00
S''
tbssg327
(dp833
I0
g4
(g5
(I0
tS'b'
tRp834
(I1
(I0
tg8
I00
S''
tbssg329
(dp835
I0
g4
(g5
(I0
tS'b'
tRp836
(I1
(I0
tg8
I00
S''
tbssg331
(dp837
I0
g4
(g5
(I0
tS'b'
tRp838
(I1
(I0
tg8
I00
S''
tbssg333
(dp839
I0
g4
(g5
(I0
tS'b'
tRp840
(I1
(I0
tg8
I00
S''
tbssg227
(dp841
I0
g4
(g5
(I0
tS'b'
tRp842
(I1
(I0
tg8
I00
S''
tbssS'z'
(dp843
I0
g4
(g5
(I0
tS'b'
tRp844
(I1
(I0
tg8
I00
S''
tbssg336
(dp845
I0
g4
(g5
(I0
tS'b'
tRp846
(I1
(I0
tg8
I00
S''
tbssg338
(dp847
I0
g4
(g5
(I0
tS'b'
tRp848
(I1
(I0
tg8
I00
S''
tbssg340
(dp849
I0
g4
(g5
(I0
tS'b'
tRp850
(I1
(I0
tg8
I00
S''
tbssg342
(dp851
I0
g4
(g5
(I0
tS'b'
tRp852
(I1
(I0
tg8
I00
S''
tbssg344
(dp853
I0
g4
(g5
(I0
tS'b'
tRp854
(I1
(I0
tg8
I00
S''
tbssg346
(dp855
I0
g4
(g5
(I0
tS'b'
tRp856
(I1
(I0
tg8
I00
S''
tbssg348
(dp857
I0
g4
(g5
(I0
tS'b'
tRp858
(I1
(I0
tg8
I00
S''
tbssg350
(dp859
I0
g4
(g5
(I0
tS'b'
tRp860
(I1
(I0
tg8
I00
S''
tbssg218
(dp861
I0
g4
(g5
(I0
tS'b'
tRp862
(I1
(I0
tg8
I00
S''
tbssS'a_reg.13'
p863
(dp864
I0
g4
(g5
(I0
tS'b'
tRp865
(I1
(I0
I300
I1
tg8
I00
S''
tbssS'a_reg.12'
p866
(dp867
I0
g4
(g5
(I0
tS'b'
tRp868
(I1
(I0
I297
I1
tg8
I00
S''
tbssS'a_reg.11'
p869
(dp870
I0
g4
(g5
(I0
tS'b'
tRp871
(I1
(I0
I300
I1
tg8
I00
S''
tbssS'a_reg.10'
p872
(dp873
I0
g4
(g5
(I0
tS'b'
tRp874
(I1
(I0
I292
I1
tg8
I00
S''
tbssS'a_reg.17'
p875
(dp876
I0
g4
(g5
(I0
tS'b'
tRp877
(I1
(I0
I287
I1
tg8
I00
S''
tbssS'a_reg.16'
p878
(dp879
I0
g4
(g5
(I0
tS'b'
tRp880
(I1
(I0
I298
I1
tg8
I00
S''
tbssS'a_reg.15'
p881
(dp882
I0
g4
(g5
(I0
tS'b'
tRp883
(I1
(I0
I284
I1
tg8
I00
S''
tbssS'a_reg.14'
p884
(dp885
I0
g4
(g5
(I0
tS'b'
tRp886
(I1
(I0
I234
I1
tg8
I00
S''
tbssS'a_reg.19'
p887
(dp888
I0
g4
(g5
(I0
tS'b'
tRp889
(I1
(I0
I235
I1
tg8
I00
S''
tbssS'a_reg.18'
p890
(dp891
I0
g4
(g5
(I0
tS'b'
tRp892
(I1
(I0
I295
I1
tg8
I00
S''
tbssg360
(dp893
I0
g4
(g5
(I0
tS'b'
tRp894
(I1
(I0
tg8
I00
S''
tbssS'z_subj.19'
p895
(dp896
I0
g4
(g5
(I0
tS'b'
tRp897
(I1
(I0
tg8
I00
S''
tbssS'v_reg.7'
p898
(dp899
I0
g4
(g5
(I0
tS'b'
tRp900
(I1
(I0
I292
I1
tg8
I00
S''
tbssS'a_reg.9'
p901
(dp902
I0
g4
(g5
(I0
tS'b'
tRp903
(I1
(I0
I298
I1
tg8
I00
S''
tbssS'a_reg.8'
p904
(dp905
I0
g4
(g5
(I0
tS'b'
tRp906
(I1
(I0
I298
I1
tg8
I00
S''
tbssS'a_reg.7'
p907
(dp908
I0
g4
(g5
(I0
tS'b'
tRp909
(I1
(I0
I292
I1
tg8
I00
S''
tbssS'a_reg.6'
p910
(dp911
I0
g4
(g5
(I0
tS'b'
tRp912
(I1
(I0
I255
I1
tg8
I00
S''
tbssS'a_reg.5'
p913
(dp914
I0
g4
(g5
(I0
tS'b'
tRp915
(I1
(I0
I298
I1
tg8
I00
S''
tbssS'a_reg.4'
p916
(dp917
I0
g4
(g5
(I0
tS'b'
tRp918
(I1
(I0
I296
I1
tg8
I00
S''
tbssS'a_reg.3'
p919
(dp920
I0
g4
(g5
(I0
tS'b'
tRp921
(I1
(I0
I299
I1
tg8
I00
S''
tbssS'a_reg.2'
p922
(dp923
I0
g4
(g5
(I0
tS'b'
tRp924
(I1
(I0
I262
I1
tg8
I00
S''
tbssS'a_reg.1'
p925
(dp926
I0
g4
(g5
(I0
tS'b'
tRp927
(I1
(I0
I289
I1
tg8
I00
S''
tbssS'a_reg.21'
p928
(dp929
I0
g4
(g5
(I0
tS'b'
tRp930
(I1
(I0
I297
I1
tg8
I00
S''
tbssS'z_subj.22'
p931
(dp932
I0
g4
(g5
(I0
tS'b'
tRp933
(I1
(I0
tg8
I00
S''
tbssg352
(dp934
I0
g4
(g5
(I0
tS'b'
tRp935
(I1
(I0
tg8
I00
S''
tbssS'a_reg.22'
p936
(dp937
I0
g4
(g5
(I0
tS'b'
tRp938
(I1
(I0
I293
I1
tg8
I00
S''
tbssS'a_reg.23'
p939
(dp940
I0
g4
(g5
(I0
tS'b'
tRp941
(I1
(I0
I299
I1
tg8
I00
S''
tbssS'a_reg.20'
p942
(dp943
I0
g4
(g5
(I0
tS'b'
tRp944
(I1
(I0
I299
I1
tg8
I00
S''
tbssg215
(dp945
I0
g4
(g5
(I0
tS'b'
tRp946
(I1
(I0
tg8
I00
S''
tbssS'z_subj.20'
p947
(dp948
I0
g4
(g5
(I0
tS'b'
tRp949
(I1
(I0
tg8
I00
S''
tbssg354
(dp950
I0
g4
(g5
(I0
tS'b'
tRp951
(I1
(I0
tg8
I00
S''
tbssg356
(dp952
I0
g4
(g5
(I0
tS'b'
tRp953
(I1
(I0
tg8
I00
S''
tbssg358
(dp954
I0
g4
(g5
(I0
tS'b'
tRp955
(I1
(I0
tg8
I00
S''
tbssS'v_reg.21'
p956
(dp957
I0
g4
(g5
(I0
tS'b'
tRp958
(I1
(I0
I297
I1
tg8
I00
S''
tbssg362
(dp959
I0
g4
(g5
(I0
tS'b'
tRp960
(I1
(I0
tg8
I00
S''
tbssg364
(dp961
I0
g4
(g5
(I0
tS'b'
tRp962
(I1
(I0
tg8
I00
S''
tbssg366
(dp963
I0
g4
(g5
(I0
tS'b'
tRp964
(I1
(I0
tg8
I00
S''
tbssg306
(dp965
I0
g4
(g5
(I0
tS'b'
tRp966
(I1
(I0
tg8
I00
S''
tbssg368
(dp967
I0
g4
(g5
(I0
tS'b'
tRp968
(I1
(I0
tg8
I00
S''
tbssg370
(dp969
I0
g4
(g5
(I0
tS'b'
tRp970
(I1
(I0
tg8
I00
S''
tbssg372
(dp971
I0
g4
(g5
(I0
tS'b'
tRp972
(I1
(I0
tg8
I00
S''
tbss.